; Function Attrs: nounwind sspstrong uwtable
define internal range(i64 1, 0) i64 @rb_file_s_lchmod(i32 noundef %0, ptr noundef readonly captures(none) %1, i64 %2) #0 {
  %4 = alloca i32, align 4
  call void @llvm.lifetime.start.p0(i64 4, ptr nonnull %4) #22
  %5 = icmp slt i32 %0, 1
  br i1 %5, label %6, label %rb_check_arity.exit

6:                                                ; preds = %3
  tail call void @rb_error_arity(i32 noundef %0, i32 noundef 1, i32 noundef -1) #24
  unreachable

rb_check_arity.exit:                              ; preds = %3
  %7 = add nsw i32 %0, -1
  %8 = getelementptr i8, ptr %1, i64 8
  %9 = load i64, ptr %1, align 8, !tbaa !12
  %10 = tail call i64 @rb_num2uint(i64 noundef %9) #22
  %11 = trunc i64 %10 to i32
  store i32 %11, ptr %4, align 4, !tbaa !26
  %12 = call fastcc i64 @apply2files(ptr noundef nonnull @lchmod_internal, i32 noundef %7, ptr noundef %8, ptr noundef nonnull %4)
  call void @llvm.lifetime.end.p0(i64 4, ptr nonnull %4) #22
  ret i64 %12
}